; ModuleID = 'source-C-CXX/57/1147.c'
source_filename = "source-C-CXX/57/1147.c"
target datalayout = "e-m:e-p270:32:32-p271:32:32-p272:64:64-i64:64-f80:128-n8:16:32:64-S128"
target triple = "x86_64-pc-linux-gnu"

%struct._IO_FILE = type { i32, i8*, i8*, i8*, i8*, i8*, i8*, i8*, i8*, i8*, i8*, i8*, %struct._IO_marker*, %struct._IO_FILE*, i32, i32, i64, i16, i8, [1 x i8], i8*, i64, %struct._IO_codecvt*, %struct._IO_wide_data*, %struct._IO_FILE*, i8*, i64, i32, [20 x i8] }
%struct._IO_marker = type opaque
%struct._IO_codecvt = type opaque
%struct._IO_wide_data = type opaque

@.str = private unnamed_addr constant [3 x i8] c"%d\00", align 1
@.str.1 = private unnamed_addr constant [4 x i8] c"%d\0A\00", align 1
@stdin = external local_unnamed_addr global %struct._IO_FILE*, align 8

; Function Attrs: nounwind sspstrong uwtable
define dso_local i32 @main() local_unnamed_addr #0 {
  %1 = alloca i32, align 4
  %2 = alloca [81 x i8], align 16
  %3 = bitcast i32* %1 to i8*
  call void @llvm.lifetime.start.p0i8(i64 4, i8* nonnull %3) #4
  %4 = getelementptr inbounds [81 x i8], [81 x i8]* %2, i64 0, i64 0
  call void @llvm.lifetime.start.p0i8(i64 81, i8* nonnull %4) #4
  %5 = call i32 (i8*, ...) @__isoc99_scanf(i8* getelementptr inbounds ([3 x i8], [3 x i8]* @.str, i64 0, i64 0), i32* nonnull %1)
  %6 = load %struct._IO_FILE*, %struct._IO_FILE** @stdin, align 8, !tbaa !5
  %7 = call i32 @getc(%struct._IO_FILE* %6) #4
  %8 = load i32, i32* %1, align 4, !tbaa !9
  %9 = icmp slt i32 %8, 1
  br i1 %9, label %47, label %10

10:                                               ; preds = %0, %41
  %11 = phi i32 [ %44, %41 ], [ 1, %0 ]
  %12 = call i32 (i8*, ...) bitcast (i32 (...)* @gets to i32 (i8*, ...)*)(i8* nonnull %4) #4
  %13 = load i8, i8* %4, align 16, !tbaa !11
  %14 = icmp eq i8 %13, 0
  br i1 %14, label %41, label %15

15:                                               ; preds = %10, %36
  %16 = phi i64 [ %37, %36 ], [ 0, %10 ]
  %17 = phi i8 [ %39, %36 ], [ %13, %10 ]
  %18 = icmp eq i64 %16, 0
  %19 = add i8 %17, -65
  %20 = icmp ult i8 %19, 26
  br i1 %18, label %21, label %27

21:                                               ; preds = %15
  br i1 %20, label %36, label %22

22:                                               ; preds = %21
  %23 = add i8 %17, -97
  %24 = icmp ult i8 %23, 26
  %25 = icmp eq i8 %17, 95
  %26 = or i1 %25, %24
  br i1 %26, label %36, label %41

27:                                               ; preds = %15
  br i1 %20, label %36, label %28

28:                                               ; preds = %27
  %29 = add i8 %17, -97
  %30 = icmp ult i8 %29, 26
  %31 = icmp eq i8 %17, 95
  %32 = or i1 %31, %30
  %33 = add i8 %17, -48
  %34 = icmp ult i8 %33, 10
  %35 = or i1 %34, %32
  br i1 %35, label %36, label %41

36:                                               ; preds = %21, %22, %28, %27
  %37 = add nuw i64 %16, 1
  %38 = getelementptr inbounds [81 x i8], [81 x i8]* %2, i64 0, i64 %37
  %39 = load i8, i8* %38, align 1, !tbaa !11
  %40 = icmp eq i8 %39, 0
  br i1 %40, label %41, label %15, !llvm.loop !12

41:                                               ; preds = %36, %22, %28, %10
  %42 = phi i32 [ 1, %10 ], [ 0, %28 ], [ 0, %22 ], [ 1, %36 ]
  %43 = call i32 (i8*, ...) @printf(i8* nonnull dereferenceable(1) getelementptr inbounds ([4 x i8], [4 x i8]* @.str.1, i64 0, i64 0), i32 %42)
  %44 = add nuw nsw i32 %11, 1
  %45 = load i32, i32* %1, align 4, !tbaa !9
  %46 = icmp slt i32 %11, %45
  br i1 %46, label %10, label %47, !llvm.loop !14

47:                                               ; preds = %41, %0
  call void @llvm.lifetime.end.p0i8(i64 81, i8* nonnull %4) #4
  call void @llvm.lifetime.end.p0i8(i64 4, i8* nonnull %3) #4
  ret i32 0
}

; Function Attrs: argmemonly mustprogress nofree nosync nounwind willreturn
declare void @llvm.lifetime.start.p0i8(i64 immarg, i8* nocapture) #1

; Function Attrs: nofree nounwind
declare noundef i32 @__isoc99_scanf(i8* nocapture noundef readonly, ...) local_unnamed_addr #2

declare i32 @gets(...) local_unnamed_addr #3

; Function Attrs: nofree nounwind
declare noundef i32 @printf(i8* nocapture noundef readonly, ...) local_unnamed_addr #2

; Function Attrs: argmemonly mustprogress nofree nosync nounwind willreturn
declare void @llvm.lifetime.end.p0i8(i64 immarg, i8* nocapture) #1

; Function Attrs: nofree nounwind
declare noundef i32 @getc(%struct._IO_FILE* nocapture noundef) local_unnamed_addr #2


!llvm.module.flags = !{!0, !1, !2, !3}
!llvm.ident = !{!4}

!0 = !{i32 1, !"wchar_size", i32 4}
!1 = !{i32 7, !"PIC Level", i32 2}
!2 = !{i32 7, !"PIE Level", i32 2}
!3 = !{i32 7, !"uwtable", i32 1}
!4 = !{!"clang version 13.0.0"}
!5 = !{!6, !6, i64 0}
!6 = !{!"any pointer", !7, i64 0}
!7 = !{!"omnipotent char", !8, i64 0}
!8 = !{!"Simple C/C++ TBAA"}
!9 = !{!10, !10, i64 0}
!10 = !{!"int", !7, i64 0}
!11 = !{!7, !7, i64 0}
!12 = distinct !{!12, !13}
!13 = !{!"llvm.loop.mustprogress"}
!14 = distinct !{!14, !13}
